target datalayout = "e-m:e-p270:32:32-p271:32:32-p272:64:64-i64:64-i128:128-f80:128-n8:16:32:64-S128"
target triple = "x86_64-pc-linux-gnu"

%struct.evp_test_st = type { %struct.stanza_st, ptr, i32, ptr, ptr, ptr, ptr, ptr, ptr, i32 }
%struct.stanza_st = type { ptr, ptr, i32, i32, i32, i32, i32, i32, [150 x %struct.pair_st], ptr, [32768 x i8] }
%struct.pair_st = type { ptr, ptr }
%struct.pbe_data_st = type { i32, i64, i64, i64, i64, i32, i32, ptr, ptr, i64, ptr, i64, ptr, i64 }

@propquery = internal global ptr null, align 8
@libctx = internal global ptr null, align 8
@.str.29 = private unnamed_addr constant [27 x i8] c"../openssl/test/evp_test.c\00", align 1
@.str.112 = private unnamed_addr constant [4 x i8] c"got\00", align 1
@.str.213 = private unnamed_addr constant [9 x i8] c"expected\00", align 1
@.str.280 = private unnamed_addr constant [15 x i8] c"INTERNAL_ERROR\00", align 1
@.str.428 = private unnamed_addr constant [40 x i8] c"key = OPENSSL_malloc(expected->key_len)\00", align 1
@.str.429 = private unnamed_addr constant [13 x i8] c"PBKDF2_ERROR\00", align 1
@.str.430 = private unnamed_addr constant [13 x i8] c"SCRYPT_ERROR\00", align 1
@.str.431 = private unnamed_addr constant [13 x i8] c"PKCS12_ERROR\00", align 1
@.str.432 = private unnamed_addr constant [13 x i8] c"KEY_MISMATCH\00", align 1

; Function Attrs: nounwind uwtable
define internal i32 @memory_err_compare(ptr noundef %0, ptr noundef %1, ptr noundef %2, i64 noundef %3, ptr noundef %4, i64 noundef %5) #0 {
  %7 = alloca ptr, align 8
  %8 = alloca ptr, align 8
  %9 = alloca ptr, align 8
  %10 = alloca i64, align 8
  %11 = alloca ptr, align 8
  %12 = alloca i64, align 8
  %13 = alloca i32, align 4
  store ptr %0, ptr %7, align 8, !tbaa !15
  store ptr %1, ptr %8, align 8, !tbaa !4
  store ptr %2, ptr %9, align 8, !tbaa !97
  store i64 %3, ptr %10, align 8, !tbaa !13
  store ptr %4, ptr %11, align 8, !tbaa !97
  store i64 %5, ptr %12, align 8, !tbaa !13
  call void @llvm.lifetime.start.p0(i64 4, ptr %13) #10
  %14 = load ptr, ptr %7, align 8, !tbaa !15
  %15 = getelementptr inbounds nuw %struct.evp_test_st, ptr %14, i32 0, i32 6
  %16 = load ptr, ptr %15, align 8, !tbaa !57
  %17 = icmp ne ptr %16, null
  br i1 %17, label %18, label %34

18:                                               ; preds = %6
  %19 = load ptr, ptr %7, align 8, !tbaa !15
  %20 = getelementptr inbounds nuw %struct.evp_test_st, ptr %19, i32 0, i32 6
  %21 = load ptr, ptr %20, align 8, !tbaa !57
  %22 = load ptr, ptr %8, align 8, !tbaa !4
  %23 = call i32 @strcmp(ptr noundef %21, ptr noundef %22) #11
  %24 = icmp eq i32 %23, 0
  br i1 %24, label %25, label %34

25:                                               ; preds = %18
  %26 = load ptr, ptr %9, align 8, !tbaa !97
  %27 = load i64, ptr %10, align 8, !tbaa !13
  %28 = load ptr, ptr %11, align 8, !tbaa !97
  %29 = load i64, ptr %12, align 8, !tbaa !13
  %30 = call i32 @test_mem_ne(ptr noundef @.str.29, i32 noundef 332, ptr noundef @.str.213, ptr noundef @.str.112, ptr noundef %26, i64 noundef %27, ptr noundef %28, i64 noundef %29)
  %31 = icmp ne i32 %30, 0
  %32 = xor i1 %31, true
  %33 = zext i1 %32 to i32
  store i32 %33, ptr %13, align 4, !tbaa !9
  br label %40

34:                                               ; preds = %18, %6
  %35 = load ptr, ptr %9, align 8, !tbaa !97
  %36 = load i64, ptr %10, align 8, !tbaa !13
  %37 = load ptr, ptr %11, align 8, !tbaa !97
  %38 = load i64, ptr %12, align 8, !tbaa !13
  %39 = call i32 @test_mem_eq(ptr noundef @.str.29, i32 noundef 334, ptr noundef @.str.213, ptr noundef @.str.112, ptr noundef %35, i64 noundef %36, ptr noundef %37, i64 noundef %38)
  store i32 %39, ptr %13, align 4, !tbaa !9
  br label %40

40:                                               ; preds = %34, %25
  %41 = load i32, ptr %13, align 4, !tbaa !9
  %42 = icmp ne i32 %41, 0
  br i1 %42, label %47, label %43

43:                                               ; preds = %40
  %44 = load ptr, ptr %8, align 8, !tbaa !4
  %45 = load ptr, ptr %7, align 8, !tbaa !15
  %46 = getelementptr inbounds nuw %struct.evp_test_st, ptr %45, i32 0, i32 4
  store ptr %44, ptr %46, align 8, !tbaa !63
  br label %47

47:                                               ; preds = %43, %40
  %48 = load i32, ptr %13, align 4, !tbaa !9
  call void @llvm.lifetime.end.p0(i64 4, ptr %13) #10
  ret i32 %48
}

; Function Attrs: nounwind uwtable
define internal i32 @pbe_test_run(ptr noundef %0) #0 {
  %2 = alloca ptr, align 8
  %3 = alloca ptr, align 8
  %4 = alloca ptr, align 8
  %5 = alloca ptr, align 8
  %6 = alloca ptr, align 8
  store ptr %0, ptr %2, align 8, !tbaa !15
  call void @llvm.lifetime.start.p0(i64 8, ptr %3) #10
  %7 = load ptr, ptr %2, align 8, !tbaa !15
  %8 = getelementptr inbounds nuw %struct.evp_test_st, ptr %7, i32 0, i32 8
  %9 = load ptr, ptr %8, align 8, !tbaa !66
  store ptr %9, ptr %3, align 8, !tbaa !328
  call void @llvm.lifetime.start.p0(i64 8, ptr %4) #10
  call void @llvm.lifetime.start.p0(i64 8, ptr %5) #10
  store ptr null, ptr %5, align 8, !tbaa !182
  call void @llvm.lifetime.start.p0(i64 8, ptr %6) #10
  %10 = load ptr, ptr @libctx, align 8, !tbaa !17
  %11 = call ptr @OSSL_LIB_CTX_set0_default(ptr noundef %10)
  store ptr %11, ptr %6, align 8, !tbaa !17
  %12 = load ptr, ptr %3, align 8, !tbaa !328
  %13 = getelementptr inbounds nuw %struct.pbe_data_st, ptr %12, i32 0, i32 13
  %14 = load i64, ptr %13, align 8, !tbaa !335
  %15 = call noalias ptr @CRYPTO_malloc(i64 noundef %14, ptr noundef @.str.29, i32 noundef 3159)
  store ptr %15, ptr %4, align 8, !tbaa !4
  %16 = call i32 @test_ptr(ptr noundef @.str.29, i32 noundef 3159, ptr noundef @.str.428, ptr noundef %15)
  %17 = icmp ne i32 %16, 0
  br i1 %17, label %21, label %18

18:                                               ; preds = %1
  %19 = load ptr, ptr %2, align 8, !tbaa !15
  %20 = getelementptr inbounds nuw %struct.evp_test_st, ptr %19, i32 0, i32 4
  store ptr @.str.280, ptr %20, align 8, !tbaa !63
  br label %169

21:                                               ; preds = %1
  %22 = load ptr, ptr %3, align 8, !tbaa !328
  %23 = getelementptr inbounds nuw %struct.pbe_data_st, ptr %22, i32 0, i32 0
  %24 = load i32, ptr %23, align 8, !tbaa !330
  %25 = icmp eq i32 %24, 2
  br i1 %25, label %26, label %58

26:                                               ; preds = %21
  %27 = load ptr, ptr %3, align 8, !tbaa !328
  %28 = getelementptr inbounds nuw %struct.pbe_data_st, ptr %27, i32 0, i32 8
  %29 = load ptr, ptr %28, align 8, !tbaa !332
  %30 = load ptr, ptr %3, align 8, !tbaa !328
  %31 = getelementptr inbounds nuw %struct.pbe_data_st, ptr %30, i32 0, i32 9
  %32 = load i64, ptr %31, align 8, !tbaa !336
  %33 = trunc i64 %32 to i32
  %34 = load ptr, ptr %3, align 8, !tbaa !328
  %35 = getelementptr inbounds nuw %struct.pbe_data_st, ptr %34, i32 0, i32 10
  %36 = load ptr, ptr %35, align 8, !tbaa !333
  %37 = load ptr, ptr %3, align 8, !tbaa !328
  %38 = getelementptr inbounds nuw %struct.pbe_data_st, ptr %37, i32 0, i32 11
  %39 = load i64, ptr %38, align 8, !tbaa !337
  %40 = trunc i64 %39 to i32
  %41 = load ptr, ptr %3, align 8, !tbaa !328
  %42 = getelementptr inbounds nuw %struct.pbe_data_st, ptr %41, i32 0, i32 6
  %43 = load i32, ptr %42, align 4, !tbaa !338
  %44 = load ptr, ptr %3, align 8, !tbaa !328
  %45 = getelementptr inbounds nuw %struct.pbe_data_st, ptr %44, i32 0, i32 7
  %46 = load ptr, ptr %45, align 8, !tbaa !339
  %47 = load ptr, ptr %3, align 8, !tbaa !328
  %48 = getelementptr inbounds nuw %struct.pbe_data_st, ptr %47, i32 0, i32 13
  %49 = load i64, ptr %48, align 8, !tbaa !335
  %50 = trunc i64 %49 to i32
  %51 = load ptr, ptr %4, align 8, !tbaa !4
  %52 = call i32 @PKCS5_PBKDF2_HMAC(ptr noundef %29, i32 noundef %33, ptr noundef %36, i32 noundef %40, i32 noundef %43, ptr noundef %46, i32 noundef %50, ptr noundef %51)
  %53 = icmp eq i32 %52, 0
  br i1 %53, label %54, label %57

54:                                               ; preds = %26
  %55 = load ptr, ptr %2, align 8, !tbaa !15
  %56 = getelementptr inbounds nuw %struct.evp_test_st, ptr %55, i32 0, i32 4
  store ptr @.str.429, ptr %56, align 8, !tbaa !63
  br label %169

57:                                               ; preds = %26
  br label %151

58:                                               ; preds = %21
  %59 = load ptr, ptr %3, align 8, !tbaa !328
  %60 = getelementptr inbounds nuw %struct.pbe_data_st, ptr %59, i32 0, i32 0
  %61 = load i32, ptr %60, align 8, !tbaa !330
  %62 = icmp eq i32 %61, 1
  br i1 %62, label %63, label %98

63:                                               ; preds = %58
  %64 = load ptr, ptr %3, align 8, !tbaa !328
  %65 = getelementptr inbounds nuw %struct.pbe_data_st, ptr %64, i32 0, i32 8
  %66 = load ptr, ptr %65, align 8, !tbaa !332
  %67 = load ptr, ptr %3, align 8, !tbaa !328
  %68 = getelementptr inbounds nuw %struct.pbe_data_st, ptr %67, i32 0, i32 9
  %69 = load i64, ptr %68, align 8, !tbaa !336
  %70 = load ptr, ptr %3, align 8, !tbaa !328
  %71 = getelementptr inbounds nuw %struct.pbe_data_st, ptr %70, i32 0, i32 10
  %72 = load ptr, ptr %71, align 8, !tbaa !333
  %73 = load ptr, ptr %3, align 8, !tbaa !328
  %74 = getelementptr inbounds nuw %struct.pbe_data_st, ptr %73, i32 0, i32 11
  %75 = load i64, ptr %74, align 8, !tbaa !337
  %76 = load ptr, ptr %3, align 8, !tbaa !328
  %77 = getelementptr inbounds nuw %struct.pbe_data_st, ptr %76, i32 0, i32 1
  %78 = load i64, ptr %77, align 8, !tbaa !340
  %79 = load ptr, ptr %3, align 8, !tbaa !328
  %80 = getelementptr inbounds nuw %struct.pbe_data_st, ptr %79, i32 0, i32 2
  %81 = load i64, ptr %80, align 8, !tbaa !341
  %82 = load ptr, ptr %3, align 8, !tbaa !328
  %83 = getelementptr inbounds nuw %struct.pbe_data_st, ptr %82, i32 0, i32 3
  %84 = load i64, ptr %83, align 8, !tbaa !342
  %85 = load ptr, ptr %3, align 8, !tbaa !328
  %86 = getelementptr inbounds nuw %struct.pbe_data_st, ptr %85, i32 0, i32 4
  %87 = load i64, ptr %86, align 8, !tbaa !343
  %88 = load ptr, ptr %4, align 8, !tbaa !4
  %89 = load ptr, ptr %3, align 8, !tbaa !328
  %90 = getelementptr inbounds nuw %struct.pbe_data_st, ptr %89, i32 0, i32 13
  %91 = load i64, ptr %90, align 8, !tbaa !335
  %92 = call i32 @EVP_PBE_scrypt(ptr noundef %66, i64 noundef %69, ptr noundef %72, i64 noundef %75, i64 noundef %78, i64 noundef %81, i64 noundef %84, i64 noundef %87, ptr noundef %88, i64 noundef %91)
  %93 = icmp eq i32 %92, 0
  br i1 %93, label %94, label %97

94:                                               ; preds = %63
  %95 = load ptr, ptr %2, align 8, !tbaa !15
  %96 = getelementptr inbounds nuw %struct.evp_test_st, ptr %95, i32 0, i32 4
  store ptr @.str.430, ptr %96, align 8, !tbaa !63
  br label %169

97:                                               ; preds = %63
  br label %150

98:                                               ; preds = %58
  %99 = load ptr, ptr %3, align 8, !tbaa !328
  %100 = getelementptr inbounds nuw %struct.pbe_data_st, ptr %99, i32 0, i32 0
  %101 = load i32, ptr %100, align 8, !tbaa !330
  %102 = icmp eq i32 %101, 3
  br i1 %102, label %103, label %149

103:                                              ; preds = %98
  %104 = load ptr, ptr @libctx, align 8, !tbaa !17
  %105 = load ptr, ptr %3, align 8, !tbaa !328
  %106 = getelementptr inbounds nuw %struct.pbe_data_st, ptr %105, i32 0, i32 7
  %107 = load ptr, ptr %106, align 8, !tbaa !339
  %108 = call ptr @EVP_MD_get0_name(ptr noundef %107)
  %109 = load ptr, ptr @propquery, align 8, !tbaa !4
  %110 = call ptr @EVP_MD_fetch(ptr noundef %104, ptr noundef %108, ptr noundef %109)
  store ptr %110, ptr %5, align 8, !tbaa !182
  %111 = load ptr, ptr %5, align 8, !tbaa !182
  %112 = icmp eq ptr %111, null
  br i1 %112, label %113, label %116

113:                                              ; preds = %103
  %114 = load ptr, ptr %2, align 8, !tbaa !15
  %115 = getelementptr inbounds nuw %struct.evp_test_st, ptr %114, i32 0, i32 4
  store ptr @.str.431, ptr %115, align 8, !tbaa !63
  br label %169

116:                                              ; preds = %103
  %117 = load ptr, ptr %3, align 8, !tbaa !328
  %118 = getelementptr inbounds nuw %struct.pbe_data_st, ptr %117, i32 0, i32 8
  %119 = load ptr, ptr %118, align 8, !tbaa !332
  %120 = load ptr, ptr %3, align 8, !tbaa !328
  %121 = getelementptr inbounds nuw %struct.pbe_data_st, ptr %120, i32 0, i32 9
  %122 = load i64, ptr %121, align 8, !tbaa !336
  %123 = trunc i64 %122 to i32
  %124 = load ptr, ptr %3, align 8, !tbaa !328
  %125 = getelementptr inbounds nuw %struct.pbe_data_st, ptr %124, i32 0, i32 10
  %126 = load ptr, ptr %125, align 8, !tbaa !333
  %127 = load ptr, ptr %3, align 8, !tbaa !328
  %128 = getelementptr inbounds nuw %struct.pbe_data_st, ptr %127, i32 0, i32 11
  %129 = load i64, ptr %128, align 8, !tbaa !337
  %130 = trunc i64 %129 to i32
  %131 = load ptr, ptr %3, align 8, !tbaa !328
  %132 = getelementptr inbounds nuw %struct.pbe_data_st, ptr %131, i32 0, i32 5
  %133 = load i32, ptr %132, align 8, !tbaa !344
  %134 = load ptr, ptr %3, align 8, !tbaa !328
  %135 = getelementptr inbounds nuw %struct.pbe_data_st, ptr %134, i32 0, i32 6
  %136 = load i32, ptr %135, align 4, !tbaa !338
  %137 = load ptr, ptr %3, align 8, !tbaa !328
  %138 = getelementptr inbounds nuw %struct.pbe_data_st, ptr %137, i32 0, i32 13
  %139 = load i64, ptr %138, align 8, !tbaa !335
  %140 = trunc i64 %139 to i32
  %141 = load ptr, ptr %4, align 8, !tbaa !4
  %142 = load ptr, ptr %5, align 8, !tbaa !182
  %143 = call i32 @PKCS12_key_gen_uni(ptr noundef %119, i32 noundef %123, ptr noundef %126, i32 noundef %130, i32 noundef %133, i32 noundef %136, i32 noundef %140, ptr noundef %141, ptr noundef %142)
  %144 = icmp eq i32 %143, 0
  br i1 %144, label %145, label %148

145:                                              ; preds = %116
  %146 = load ptr, ptr %2, align 8, !tbaa !15
  %147 = getelementptr inbounds nuw %struct.evp_test_st, ptr %146, i32 0, i32 4
  store ptr @.str.431, ptr %147, align 8, !tbaa !63
  br label %169

148:                                              ; preds = %116
  br label %149

149:                                              ; preds = %148, %98
  br label %150

150:                                              ; preds = %149, %97
  br label %151

151:                                              ; preds = %150, %57
  %152 = load ptr, ptr %2, align 8, !tbaa !15
  %153 = load ptr, ptr %3, align 8, !tbaa !328
  %154 = getelementptr inbounds nuw %struct.pbe_data_st, ptr %153, i32 0, i32 12
  %155 = load ptr, ptr %154, align 8, !tbaa !334
  %156 = load ptr, ptr %3, align 8, !tbaa !328
  %157 = getelementptr inbounds nuw %struct.pbe_data_st, ptr %156, i32 0, i32 13
  %158 = load i64, ptr %157, align 8, !tbaa !335
  %159 = load ptr, ptr %4, align 8, !tbaa !4
  %160 = load ptr, ptr %3, align 8, !tbaa !328
  %161 = getelementptr inbounds nuw %struct.pbe_data_st, ptr %160, i32 0, i32 13
  %162 = load i64, ptr %161, align 8, !tbaa !335
  %163 = call i32 @memory_err_compare(ptr noundef %152, ptr noundef @.str.432, ptr noundef %155, i64 noundef %158, ptr noundef %159, i64 noundef %162)
  %164 = icmp ne i32 %163, 0
  br i1 %164, label %166, label %165

165:                                              ; preds = %151
  br label %169

166:                                              ; preds = %151
  %167 = load ptr, ptr %2, align 8, !tbaa !15
  %168 = getelementptr inbounds nuw %struct.evp_test_st, ptr %167, i32 0, i32 4
  store ptr null, ptr %168, align 8, !tbaa !63
  br label %169

169:                                              ; preds = %166, %165, %145, %113, %94, %54, %18
  %170 = load ptr, ptr %5, align 8, !tbaa !182
  call void @EVP_MD_free(ptr noundef %170)
  %171 = load ptr, ptr %4, align 8, !tbaa !4
  call void @CRYPTO_free(ptr noundef %171, ptr noundef @.str.29, i32 noundef 3203)
  %172 = load ptr, ptr %6, align 8, !tbaa !17
  %173 = call ptr @OSSL_LIB_CTX_set0_default(ptr noundef %172)
  call void @llvm.lifetime.end.p0(i64 8, ptr %6) #10
  call void @llvm.lifetime.end.p0(i64 8, ptr %5) #10
  call void @llvm.lifetime.end.p0(i64 8, ptr %4) #10
  call void @llvm.lifetime.end.p0(i64 8, ptr %3) #10
  ret i32 1
}