; Function Attrs: nounwind uwtable
define internal noundef i32 @pbe_test_run(ptr noundef captures(none) initializes((35240, 35248)) %0) #1 {
  %2 = getelementptr inbounds nuw i8, ptr %0, i64 35272
  %3 = load ptr, ptr %2, align 8, !tbaa !20
  %4 = load ptr, ptr @libctx, align 8, !tbaa !13
  %5 = tail call ptr @OSSL_LIB_CTX_set0_default(ptr noundef %4) #10
  %6 = getelementptr inbounds nuw i8, ptr %3, i64 96
  %7 = load i64, ptr %6, align 8, !tbaa !277
  %8 = tail call noalias ptr @CRYPTO_malloc(i64 noundef %7, ptr noundef nonnull @.str.29, i32 noundef 3159) #10
  %9 = tail call i32 @test_ptr(ptr noundef nonnull @.str.29, i32 noundef 3159, ptr noundef nonnull @.str.428, ptr noundef %8) #10
  %.not = icmp eq i32 %9, 0
  br i1 %.not, label %memory_err_compare.exit.thread, label %10

10:                                               ; preds = %1
  %11 = load i32, ptr %3, align 8, !tbaa !268
  switch i32 %11, label %78 [
    i32 2, label %12
    i32 1, label %31
    i32 3, label %51
  ]

12:                                               ; preds = %10
  %13 = getelementptr inbounds nuw i8, ptr %3, i64 56
  %14 = load ptr, ptr %13, align 8, !tbaa !270
  %15 = getelementptr inbounds nuw i8, ptr %3, i64 64
  %16 = load i64, ptr %15, align 8, !tbaa !278
  %17 = trunc i64 %16 to i32
  %18 = getelementptr inbounds nuw i8, ptr %3, i64 72
  %19 = load ptr, ptr %18, align 8, !tbaa !271
  %20 = getelementptr inbounds nuw i8, ptr %3, i64 80
  %21 = load i64, ptr %20, align 8, !tbaa !279
  %22 = trunc i64 %21 to i32
  %23 = getelementptr inbounds nuw i8, ptr %3, i64 44
  %24 = load i32, ptr %23, align 4, !tbaa !273
  %25 = getelementptr inbounds nuw i8, ptr %3, i64 48
  %26 = load ptr, ptr %25, align 8, !tbaa !274
  %27 = load i64, ptr %6, align 8, !tbaa !277
  %28 = trunc i64 %27 to i32
  %29 = tail call i32 @PKCS5_PBKDF2_HMAC(ptr noundef %14, i32 noundef %17, ptr noundef %19, i32 noundef %22, i32 noundef %24, ptr noundef %26, i32 noundef %28, ptr noundef %8) #10
  %30 = icmp eq i32 %29, 0
  br i1 %30, label %memory_err_compare.exit.thread, label %78

31:                                               ; preds = %10
  %32 = getelementptr inbounds nuw i8, ptr %3, i64 56
  %33 = load ptr, ptr %32, align 8, !tbaa !270
  %34 = getelementptr inbounds nuw i8, ptr %3, i64 64
  %35 = load i64, ptr %34, align 8, !tbaa !278
  %36 = getelementptr inbounds nuw i8, ptr %3, i64 72
  %37 = load ptr, ptr %36, align 8, !tbaa !271
  %38 = getelementptr inbounds nuw i8, ptr %3, i64 80
  %39 = load i64, ptr %38, align 8, !tbaa !279
  %40 = getelementptr inbounds nuw i8, ptr %3, i64 8
  %41 = load i64, ptr %40, align 8, !tbaa !280
  %42 = getelementptr inbounds nuw i8, ptr %3, i64 16
  %43 = load i64, ptr %42, align 8, !tbaa !281
  %44 = getelementptr inbounds nuw i8, ptr %3, i64 24
  %45 = load i64, ptr %44, align 8, !tbaa !282
  %46 = getelementptr inbounds nuw i8, ptr %3, i64 32
  %47 = load i64, ptr %46, align 8, !tbaa !283
  %48 = load i64, ptr %6, align 8, !tbaa !277
  %49 = tail call i32 @EVP_PBE_scrypt(ptr noundef %33, i64 noundef %35, ptr noundef %37, i64 noundef %39, i64 noundef %41, i64 noundef %43, i64 noundef %45, i64 noundef %47, ptr noundef %8, i64 noundef %48) #10
  %50 = icmp eq i32 %49, 0
  br i1 %50, label %memory_err_compare.exit.thread, label %78

51:                                               ; preds = %10
  %52 = load ptr, ptr @libctx, align 8, !tbaa !13
  %53 = getelementptr inbounds nuw i8, ptr %3, i64 48
  %54 = load ptr, ptr %53, align 8, !tbaa !274
  %55 = tail call ptr @EVP_MD_get0_name(ptr noundef %54) #10
  %56 = load ptr, ptr @propquery, align 8, !tbaa !10
  %57 = tail call ptr @EVP_MD_fetch(ptr noundef %52, ptr noundef %55, ptr noundef %56) #10
  %58 = icmp eq ptr %57, null
  br i1 %58, label %memory_err_compare.exit.thread, label %59

59:                                               ; preds = %51
  %60 = getelementptr inbounds nuw i8, ptr %3, i64 56
  %61 = load ptr, ptr %60, align 8, !tbaa !270
  %62 = getelementptr inbounds nuw i8, ptr %3, i64 64
  %63 = load i64, ptr %62, align 8, !tbaa !278
  %64 = trunc i64 %63 to i32
  %65 = getelementptr inbounds nuw i8, ptr %3, i64 72
  %66 = load ptr, ptr %65, align 8, !tbaa !271
  %67 = getelementptr inbounds nuw i8, ptr %3, i64 80
  %68 = load i64, ptr %67, align 8, !tbaa !279
  %69 = trunc i64 %68 to i32
  %70 = getelementptr inbounds nuw i8, ptr %3, i64 40
  %71 = load i32, ptr %70, align 8, !tbaa !275
  %72 = getelementptr inbounds nuw i8, ptr %3, i64 44
  %73 = load i32, ptr %72, align 4, !tbaa !273
  %74 = load i64, ptr %6, align 8, !tbaa !277
  %75 = trunc i64 %74 to i32
  %76 = tail call i32 @PKCS12_key_gen_uni(ptr noundef %61, i32 noundef %64, ptr noundef %66, i32 noundef %69, i32 noundef %71, i32 noundef %73, i32 noundef %75, ptr noundef %8, ptr noundef nonnull %57) #10
  %77 = icmp eq i32 %76, 0
  br i1 %77, label %memory_err_compare.exit.thread, label %78

78:                                               ; preds = %10, %31, %59, %12
  %.1 = phi ptr [ null, %12 ], [ null, %31 ], [ %57, %59 ], [ null, %10 ]
  %79 = getelementptr inbounds nuw i8, ptr %3, i64 88
  %80 = load ptr, ptr %79, align 8, !tbaa !272
  %81 = load i64, ptr %6, align 8, !tbaa !277
  %82 = getelementptr inbounds nuw i8, ptr %0, i64 35256
  %83 = load ptr, ptr %82, align 8, !tbaa !24
  %.not.i = icmp eq ptr %83, null
  br i1 %.not.i, label %89, label %84

84:                                               ; preds = %78
  %85 = tail call i32 @strcmp(ptr noundef nonnull dereferenceable(1) %83, ptr noundef nonnull dereferenceable(13) @.str.432) #11
  %86 = icmp eq i32 %85, 0
  br i1 %86, label %87, label %89

87:                                               ; preds = %84
  %88 = tail call i32 @test_mem_ne(ptr noundef nonnull @.str.29, i32 noundef 332, ptr noundef nonnull @.str.213, ptr noundef nonnull @.str.112, ptr noundef %80, i64 noundef %81, ptr noundef %8, i64 noundef %81) #10
  %.not15.i.not = icmp eq i32 %88, 0
  br i1 %.not15.i.not, label %memory_err_compare.exit, label %memory_err_compare.exit.thread

89:                                               ; preds = %78, %84
  %90 = tail call i32 @test_mem_eq(ptr noundef nonnull @.str.29, i32 noundef 334, ptr noundef nonnull @.str.213, ptr noundef nonnull @.str.112, ptr noundef %80, i64 noundef %81, ptr noundef %8, i64 noundef %81) #10
  %91 = icmp eq i32 %90, 0
  br i1 %91, label %memory_err_compare.exit.thread, label %memory_err_compare.exit

memory_err_compare.exit:                          ; preds = %87, %89
  br label %memory_err_compare.exit.thread

memory_err_compare.exit.thread:                   ; preds = %89, %87, %59, %51, %31, %12, %1, %memory_err_compare.exit
  %.str.432.sink = phi ptr [ null, %memory_err_compare.exit ], [ @.str.280, %1 ], [ @.str.429, %12 ], [ @.str.430, %31 ], [ @.str.431, %51 ], [ @.str.431, %59 ], [ @.str.432, %87 ], [ @.str.432, %89 ]
  %.0 = phi ptr [ %.1, %memory_err_compare.exit ], [ null, %1 ], [ null, %12 ], [ null, %31 ], [ null, %51 ], [ %57, %59 ], [ %.1, %87 ], [ %.1, %89 ]
  %92 = getelementptr inbounds nuw i8, ptr %0, i64 35240
  store ptr %.str.432.sink, ptr %92, align 8, !tbaa !64
  tail call void @EVP_MD_free(ptr noundef %.0) #10
  tail call void @CRYPTO_free(ptr noundef %8, ptr noundef nonnull @.str.29, i32 noundef 3203) #10
  %93 = tail call ptr @OSSL_LIB_CTX_set0_default(ptr noundef %5) #10
  ret i32 1
}